target datalayout = "e-m:e-p270:32:32-p271:32:32-p272:64:64-i64:64-i128:128-f80:128-n8:16:32:64-S128"
target triple = "x86_64-pc-linux-gnu"

%struct._dumpOptions = type { %struct._connParams, i32, i32, i8, ptr, i32, i32, i32, i32, i32, i32, i32, i32, i32, i32, i32, i32, i32, i32, i32, i32, i32, i8, i32, i32, i8, i8, i32, ptr, i32, i32, i8, i8 }
%struct._connParams = type { ptr, ptr, ptr, ptr, i32, ptr }
%struct.Archive = type { ptr, ptr, i32, ptr, i32, i8, i32, i32, i32, ptr, i32, i8, ptr, ptr, i8, i32, ptr }
%struct.SequenceItem = type { i32, i32, i8, i64, i64, i64, i64, i64, i64, i8 }

@.str.132 = private unnamed_addr constant [2 x i8] c"t\00", align 1
@sequences = internal global ptr null, align 8
@nsequences = internal global i32 0, align 4
@SeqTypeNames = internal constant [3 x ptr] [ptr @.str.1219, ptr @.str.1220, ptr @.str.1221], align 16
@.str.1218 = private unnamed_addr constant [31 x i8] c"unrecognized sequence type: %s\00", align 1
@.str.1610 = private unnamed_addr constant [162 x i8] c"SELECT seqrelid, format_type(seqtypid, NULL), seqstart, seqincrement, seqmax, seqmin, seqcache, seqcycle, NULL, 'f' FROM pg_catalog.pg_sequence ORDER BY seqrelid\00", align 1
@.str.1611 = private unnamed_addr constant [207 x i8] c"SELECT seqrelid, format_type(seqtypid, NULL), seqstart, seqincrement, seqmax, seqmin, seqcache, seqcycle, last_value, is_called FROM pg_catalog.pg_sequence, pg_get_sequence_data(seqrelid) ORDER BY seqrelid;\00", align 1

; Function Attrs: inlinehint nounwind uwtable
define internal i32 @parse_sequence_type(ptr noundef %0) #9 {
  %2 = alloca i32, align 4
  %3 = alloca ptr, align 8
  %4 = alloca i32, align 4
  %5 = alloca i32, align 4
  store ptr %0, ptr %3, align 8
  call void @llvm.lifetime.start.p0(i64 4, ptr %4) #10
  store i32 0, ptr %4, align 4
  br label %6

6:                                                ; preds = %22, %1
  %7 = load i32, ptr %4, align 4
  %8 = sext i32 %7 to i64
  %9 = icmp ult i64 %8, 3
  br i1 %9, label %11, label %10

10:                                               ; preds = %6
  store i32 2, ptr %5, align 4
  br label %25

11:                                               ; preds = %6
  %12 = load i32, ptr %4, align 4
  %13 = sext i32 %12 to i64
  %14 = getelementptr inbounds [3 x ptr], ptr @SeqTypeNames, i64 0, i64 %13
  %15 = load ptr, ptr %14, align 8
  %16 = load ptr, ptr %3, align 8
  %17 = call i32 @strcmp(ptr noundef %15, ptr noundef %16) #11
  %18 = icmp eq i32 %17, 0
  br i1 %18, label %19, label %21

19:                                               ; preds = %11
  %20 = load i32, ptr %4, align 4
  store i32 %20, ptr %2, align 4
  store i32 1, ptr %5, align 4
  br label %25

21:                                               ; preds = %11
  br label %22

22:                                               ; preds = %21
  %23 = load i32, ptr %4, align 4
  %24 = add i32 %23, 1
  store i32 %24, ptr %4, align 4
  br label %6, !llvm.loop !157

25:                                               ; preds = %19, %10
  call void @llvm.lifetime.end.p0(i64 4, ptr %4) #10
  %26 = load i32, ptr %5, align 4
  switch i32 %26, label %33 [
    i32 2, label %27
    i32 1, label %31
  ]

27:                                               ; preds = %25
  br label %28

28:                                               ; preds = %27
  %29 = load ptr, ptr %3, align 8
  call void (i32, i32, ptr, ...) @pg_log_generic(i32 noundef 4, i32 noundef 0, ptr noundef @.str.1218, ptr noundef %29)
  call void @exit_nicely(i32 noundef 1) #12
  unreachable

30:                                               ; No predecessors!
  store i32 0, ptr %2, align 4
  br label %31

31:                                               ; preds = %30, %25
  %32 = load i32, ptr %2, align 4
  ret i32 %32

33:                                               ; preds = %25
  unreachable
}

; Function Attrs: nounwind uwtable
define internal void @collectSequences(ptr noundef %0) #0 {
  %2 = alloca ptr, align 8
  %3 = alloca ptr, align 8
  %4 = alloca ptr, align 8
  %5 = alloca i32, align 4
  %6 = alloca i32, align 4
  store ptr %0, ptr %2, align 8
  call void @llvm.lifetime.start.p0(i64 8, ptr %3) #10
  call void @llvm.lifetime.start.p0(i64 8, ptr %4) #10
  %7 = load ptr, ptr %2, align 8
  %8 = getelementptr inbounds nuw %struct.Archive, ptr %7, i32 0, i32 4
  %9 = load i32, ptr %8, align 8
  %10 = icmp slt i32 %9, 100000
  br i1 %10, label %11, label %12

11:                                               ; preds = %1
  store i32 1, ptr %5, align 4
  br label %150

12:                                               ; preds = %1
  %13 = load ptr, ptr %2, align 8
  %14 = getelementptr inbounds nuw %struct.Archive, ptr %13, i32 0, i32 4
  %15 = load i32, ptr %14, align 8
  %16 = icmp slt i32 %15, 180000
  br i1 %16, label %31, label %17

17:                                               ; preds = %12
  %18 = load ptr, ptr %2, align 8
  %19 = getelementptr inbounds nuw %struct.Archive, ptr %18, i32 0, i32 0
  %20 = load ptr, ptr %19, align 8
  %21 = getelementptr inbounds nuw %struct._dumpOptions, ptr %20, i32 0, i32 32
  %22 = load i8, ptr %21, align 1, !range !6, !noundef !7
  %23 = trunc i8 %22 to i1
  br i1 %23, label %32, label %24

24:                                               ; preds = %17
  %25 = load ptr, ptr %2, align 8
  %26 = getelementptr inbounds nuw %struct.Archive, ptr %25, i32 0, i32 0
  %27 = load ptr, ptr %26, align 8
  %28 = getelementptr inbounds nuw %struct._dumpOptions, ptr %27, i32 0, i32 29
  %29 = load i32, ptr %28, align 8
  %30 = icmp ne i32 %29, 0
  br i1 %30, label %32, label %31

31:                                               ; preds = %24, %12
  store ptr @.str.1610, ptr %4, align 8
  br label %33

32:                                               ; preds = %24, %17
  store ptr @.str.1611, ptr %4, align 8
  br label %33

33:                                               ; preds = %32, %31
  br label %34

34:                                               ; preds = %33
  %35 = load ptr, ptr %2, align 8
  %36 = load ptr, ptr %4, align 8
  %37 = call ptr @ExecuteSqlQuery(ptr noundef %35, ptr noundef %36, i32 noundef 2)
  store ptr %37, ptr %3, align 8
  %38 = load ptr, ptr %3, align 8
  %39 = call i32 @PQntuples(ptr noundef %38)
  store i32 %39, ptr @nsequences, align 4
  %40 = load i32, ptr @nsequences, align 4
  %41 = sext i32 %40 to i64
  %42 = mul i64 %41, 72
  %43 = call ptr @pg_malloc(i64 noundef %42)
  store ptr %43, ptr @sequences, align 8
  call void @llvm.lifetime.start.p0(i64 4, ptr %6) #10
  store i32 0, ptr %6, align 4
  br label %44

44:                                               ; preds = %145, %34
  %45 = load i32, ptr %6, align 4
  %46 = load i32, ptr @nsequences, align 4
  %47 = icmp slt i32 %45, %46
  br i1 %47, label %49, label %48

48:                                               ; preds = %44
  store i32 2, ptr %5, align 4
  call void @llvm.lifetime.end.p0(i64 4, ptr %6) #10
  br label %148

49:                                               ; preds = %44
  %50 = load ptr, ptr %3, align 8
  %51 = load i32, ptr %6, align 4
  %52 = call ptr @PQgetvalue(ptr noundef %50, i32 noundef %51, i32 noundef 0)
  %53 = call i64 @strtoul(ptr noundef %52, ptr noundef null, i32 noundef 10) #10
  %54 = trunc i64 %53 to i32
  %55 = load ptr, ptr @sequences, align 8
  %56 = load i32, ptr %6, align 4
  %57 = sext i32 %56 to i64
  %58 = getelementptr inbounds %struct.SequenceItem, ptr %55, i64 %57
  %59 = getelementptr inbounds nuw %struct.SequenceItem, ptr %58, i32 0, i32 0
  store i32 %54, ptr %59, align 8
  %60 = load ptr, ptr %3, align 8
  %61 = load i32, ptr %6, align 4
  %62 = call ptr @PQgetvalue(ptr noundef %60, i32 noundef %61, i32 noundef 1)
  %63 = call i32 @parse_sequence_type(ptr noundef %62)
  %64 = load ptr, ptr @sequences, align 8
  %65 = load i32, ptr %6, align 4
  %66 = sext i32 %65 to i64
  %67 = getelementptr inbounds %struct.SequenceItem, ptr %64, i64 %66
  %68 = getelementptr inbounds nuw %struct.SequenceItem, ptr %67, i32 0, i32 1
  store i32 %63, ptr %68, align 4
  %69 = load ptr, ptr %3, align 8
  %70 = load i32, ptr %6, align 4
  %71 = call ptr @PQgetvalue(ptr noundef %69, i32 noundef %70, i32 noundef 2)
  %72 = call i64 @strtol(ptr noundef %71, ptr noundef null, i32 noundef 10) #10
  %73 = load ptr, ptr @sequences, align 8
  %74 = load i32, ptr %6, align 4
  %75 = sext i32 %74 to i64
  %76 = getelementptr inbounds %struct.SequenceItem, ptr %73, i64 %75
  %77 = getelementptr inbounds nuw %struct.SequenceItem, ptr %76, i32 0, i32 5
  store i64 %72, ptr %77, align 8
  %78 = load ptr, ptr %3, align 8
  %79 = load i32, ptr %6, align 4
  %80 = call ptr @PQgetvalue(ptr noundef %78, i32 noundef %79, i32 noundef 3)
  %81 = call i64 @strtol(ptr noundef %80, ptr noundef null, i32 noundef 10) #10
  %82 = load ptr, ptr @sequences, align 8
  %83 = load i32, ptr %6, align 4
  %84 = sext i32 %83 to i64
  %85 = getelementptr inbounds %struct.SequenceItem, ptr %82, i64 %84
  %86 = getelementptr inbounds nuw %struct.SequenceItem, ptr %85, i32 0, i32 6
  store i64 %81, ptr %86, align 8
  %87 = load ptr, ptr %3, align 8
  %88 = load i32, ptr %6, align 4
  %89 = call ptr @PQgetvalue(ptr noundef %87, i32 noundef %88, i32 noundef 4)
  %90 = call i64 @strtol(ptr noundef %89, ptr noundef null, i32 noundef 10) #10
  %91 = load ptr, ptr @sequences, align 8
  %92 = load i32, ptr %6, align 4
  %93 = sext i32 %92 to i64
  %94 = getelementptr inbounds %struct.SequenceItem, ptr %91, i64 %93
  %95 = getelementptr inbounds nuw %struct.SequenceItem, ptr %94, i32 0, i32 4
  store i64 %90, ptr %95, align 8
  %96 = load ptr, ptr %3, align 8
  %97 = load i32, ptr %6, align 4
  %98 = call ptr @PQgetvalue(ptr noundef %96, i32 noundef %97, i32 noundef 5)
  %99 = call i64 @strtol(ptr noundef %98, ptr noundef null, i32 noundef 10) #10
  %100 = load ptr, ptr @sequences, align 8
  %101 = load i32, ptr %6, align 4
  %102 = sext i32 %101 to i64
  %103 = getelementptr inbounds %struct.SequenceItem, ptr %100, i64 %102
  %104 = getelementptr inbounds nuw %struct.SequenceItem, ptr %103, i32 0, i32 3
  store i64 %99, ptr %104, align 8
  %105 = load ptr, ptr %3, align 8
  %106 = load i32, ptr %6, align 4
  %107 = call ptr @PQgetvalue(ptr noundef %105, i32 noundef %106, i32 noundef 6)
  %108 = call i64 @strtol(ptr noundef %107, ptr noundef null, i32 noundef 10) #10
  %109 = load ptr, ptr @sequences, align 8
  %110 = load i32, ptr %6, align 4
  %111 = sext i32 %110 to i64
  %112 = getelementptr inbounds %struct.SequenceItem, ptr %109, i64 %111
  %113 = getelementptr inbounds nuw %struct.SequenceItem, ptr %112, i32 0, i32 7
  store i64 %108, ptr %113, align 8
  %114 = load ptr, ptr %3, align 8
  %115 = load i32, ptr %6, align 4
  %116 = call ptr @PQgetvalue(ptr noundef %114, i32 noundef %115, i32 noundef 7)
  %117 = call i32 @strcmp(ptr noundef %116, ptr noundef @.str.132) #11
  %118 = icmp eq i32 %117, 0
  %119 = load ptr, ptr @sequences, align 8
  %120 = load i32, ptr %6, align 4
  %121 = sext i32 %120 to i64
  %122 = getelementptr inbounds %struct.SequenceItem, ptr %119, i64 %121
  %123 = getelementptr inbounds nuw %struct.SequenceItem, ptr %122, i32 0, i32 2
  %124 = zext i1 %118 to i8
  store i8 %124, ptr %123, align 8
  %125 = load ptr, ptr %3, align 8
  %126 = load i32, ptr %6, align 4
  %127 = call ptr @PQgetvalue(ptr noundef %125, i32 noundef %126, i32 noundef 8)
  %128 = call i64 @strtol(ptr noundef %127, ptr noundef null, i32 noundef 10) #10
  %129 = load ptr, ptr @sequences, align 8
  %130 = load i32, ptr %6, align 4
  %131 = sext i32 %130 to i64
  %132 = getelementptr inbounds %struct.SequenceItem, ptr %129, i64 %131
  %133 = getelementptr inbounds nuw %struct.SequenceItem, ptr %132, i32 0, i32 8
  store i64 %128, ptr %133, align 8
  %134 = load ptr, ptr %3, align 8
  %135 = load i32, ptr %6, align 4
  %136 = call ptr @PQgetvalue(ptr noundef %134, i32 noundef %135, i32 noundef 9)
  %137 = call i32 @strcmp(ptr noundef %136, ptr noundef @.str.132) #11
  %138 = icmp eq i32 %137, 0
  %139 = load ptr, ptr @sequences, align 8
  %140 = load i32, ptr %6, align 4
  %141 = sext i32 %140 to i64
  %142 = getelementptr inbounds %struct.SequenceItem, ptr %139, i64 %141
  %143 = getelementptr inbounds nuw %struct.SequenceItem, ptr %142, i32 0, i32 9
  %144 = zext i1 %138 to i8
  store i8 %144, ptr %143, align 8
  br label %145

145:                                              ; preds = %49
  %146 = load i32, ptr %6, align 4
  %147 = add i32 %146, 1
  store i32 %147, ptr %6, align 4
  br label %44, !llvm.loop !31

148:                                              ; preds = %48
  %149 = load ptr, ptr %3, align 8
  call void @PQclear(ptr noundef %149)
  store i32 0, ptr %5, align 4
  br label %150

150:                                              ; preds = %148, %11
  call void @llvm.lifetime.end.p0(i64 8, ptr %4) #10
  call void @llvm.lifetime.end.p0(i64 8, ptr %3) #10
  %151 = load i32, ptr %5, align 4
  switch i32 %151, label %153 [
    i32 0, label %152
    i32 1, label %152
  ]

152:                                              ; preds = %150, %150
  ret void

153:                                              ; preds = %150
  unreachable
}