; Function Attrs: nounwind uwtable
define internal fastcc void @collectSequences(ptr noundef %0) unnamed_addr #5 {
  %2 = getelementptr inbounds nuw i8, ptr %0, i64 32
  %3 = load i32, ptr %2, align 8
  %4 = icmp slt i32 %3, 100000
  br i1 %4, label %86, label %5

5:                                                ; preds = %1
  %6 = icmp samesign ult i32 %3, 180000
  br i1 %6, label %16, label %7

7:                                                ; preds = %5
  %8 = load ptr, ptr %0, align 8
  %9 = getelementptr inbounds nuw i8, ptr %8, i64 177
  %10 = load i8, ptr %9, align 1, !range !7, !noundef !8
  %11 = trunc nuw i8 %10 to i1
  br i1 %11, label %15, label %12

12:                                               ; preds = %7
  %13 = getelementptr inbounds nuw i8, ptr %8, i64 168
  %14 = load i32, ptr %13, align 8
  %.not = icmp eq i32 %14, 0
  br i1 %.not, label %16, label %15

15:                                               ; preds = %12, %7
  br label %16

16:                                               ; preds = %5, %12, %15
  %.039 = phi ptr [ @.str.1611, %15 ], [ @.str.1610, %12 ], [ @.str.1610, %5 ]
  %17 = tail call ptr @ExecuteSqlQuery(ptr noundef nonnull %0, ptr noundef nonnull %.039, i32 noundef 2) #14
  %18 = tail call i32 @PQntuples(ptr noundef %17) #14
  store i32 %18, ptr @nsequences, align 4
  %19 = sext i32 %18 to i64
  %20 = mul nsw i64 %19, 72
  %21 = tail call ptr @pg_malloc(i64 noundef %20) #14
  store ptr %21, ptr @sequences, align 8
  %22 = load i32, ptr @nsequences, align 4
  %23 = icmp sgt i32 %22, 0
  br i1 %23, label %.lr.ph, label %._crit_edge

._crit_edge:                                      ; preds = %parse_sequence_type.exit.tail, %16
  tail call void @PQclear(ptr noundef %17) #14
  br label %86

.lr.ph:                                           ; preds = %16, %parse_sequence_type.exit.tail
  %indvars.iv = phi i64 [ %indvars.iv.next, %parse_sequence_type.exit.tail ], [ 0, %16 ]
  %24 = trunc nuw nsw i64 %indvars.iv to i32
  %25 = tail call ptr @PQgetvalue(ptr noundef %17, i32 noundef %24, i32 noundef 0) #14
  %26 = tail call i64 @strtoul(ptr noundef captures(none) %25, ptr noundef null, i32 noundef 10) #14
  %27 = trunc i64 %26 to i32
  %28 = load ptr, ptr @sequences, align 8
  %29 = getelementptr inbounds nuw %struct.SequenceItem, ptr %28, i64 %indvars.iv
  store i32 %27, ptr %29, align 8
  %30 = tail call ptr @PQgetvalue(ptr noundef %17, i32 noundef %24, i32 noundef 1) #14
  br label %31

31:                                               ; preds = %36, %.lr.ph
  %indvars.iv.i = phi i64 [ 0, %.lr.ph ], [ %indvars.iv.next.i, %36 ]
  %32 = getelementptr inbounds nuw [3 x ptr], ptr @SeqTypeNames, i64 0, i64 %indvars.iv.i
  %33 = load ptr, ptr %32, align 8
  %34 = tail call i32 @strcmp(ptr noundef nonnull dereferenceable(1) %33, ptr noundef nonnull dereferenceable(1) %30) #15
  %35 = icmp eq i32 %34, 0
  br i1 %35, label %parse_sequence_type.exit, label %36

36:                                               ; preds = %31
  %indvars.iv.next.i = add nuw nsw i64 %indvars.iv.i, 1
  %exitcond.not.i = icmp eq i64 %indvars.iv.next.i, 3
  br i1 %exitcond.not.i, label %37, label %31, !llvm.loop !51

37:                                               ; preds = %36
  tail call void (i32, i32, ptr, ...) @pg_log_generic(i32 noundef 4, i32 noundef 0, ptr noundef nonnull @.str.1218, ptr noundef nonnull %30) #14
  tail call void @exit_nicely(i32 noundef 1) #16
  unreachable

parse_sequence_type.exit:                         ; preds = %31
  %38 = trunc nuw nsw i64 %indvars.iv.i to i32
  %39 = load ptr, ptr @sequences, align 8
  %40 = getelementptr inbounds nuw %struct.SequenceItem, ptr %39, i64 %indvars.iv, i32 1
  store i32 %38, ptr %40, align 4
  %41 = tail call ptr @PQgetvalue(ptr noundef %17, i32 noundef %24, i32 noundef 2) #14
  %42 = tail call i64 @strtol(ptr noundef captures(none) %41, ptr noundef null, i32 noundef 10) #14
  %43 = load ptr, ptr @sequences, align 8
  %44 = getelementptr inbounds nuw %struct.SequenceItem, ptr %43, i64 %indvars.iv, i32 5
  store i64 %42, ptr %44, align 8
  %45 = tail call ptr @PQgetvalue(ptr noundef %17, i32 noundef %24, i32 noundef 3) #14
  %46 = tail call i64 @strtol(ptr noundef captures(none) %45, ptr noundef null, i32 noundef 10) #14
  %47 = load ptr, ptr @sequences, align 8
  %48 = getelementptr inbounds nuw %struct.SequenceItem, ptr %47, i64 %indvars.iv, i32 6
  store i64 %46, ptr %48, align 8
  %49 = tail call ptr @PQgetvalue(ptr noundef %17, i32 noundef %24, i32 noundef 4) #14
  %50 = tail call i64 @strtol(ptr noundef captures(none) %49, ptr noundef null, i32 noundef 10) #14
  %51 = load ptr, ptr @sequences, align 8
  %52 = getelementptr inbounds nuw %struct.SequenceItem, ptr %51, i64 %indvars.iv, i32 4
  store i64 %50, ptr %52, align 8
  %53 = tail call ptr @PQgetvalue(ptr noundef %17, i32 noundef %24, i32 noundef 5) #14
  %54 = tail call i64 @strtol(ptr noundef captures(none) %53, ptr noundef null, i32 noundef 10) #14
  %55 = load ptr, ptr @sequences, align 8
  %56 = getelementptr inbounds nuw %struct.SequenceItem, ptr %55, i64 %indvars.iv, i32 3
  store i64 %54, ptr %56, align 8
  %57 = tail call ptr @PQgetvalue(ptr noundef %17, i32 noundef %24, i32 noundef 6) #14
  %58 = tail call i64 @strtol(ptr noundef captures(none) %57, ptr noundef null, i32 noundef 10) #14
  %59 = load ptr, ptr @sequences, align 8
  %60 = getelementptr inbounds nuw %struct.SequenceItem, ptr %59, i64 %indvars.iv, i32 7
  store i64 %58, ptr %60, align 8
  %61 = tail call ptr @PQgetvalue(ptr noundef %17, i32 noundef %24, i32 noundef 7) #14
  %62 = load i8, ptr %61, align 1
  %.not47 = icmp eq i8 %62, 116
  br i1 %.not47, label %sub_143, label %parse_sequence_type.exit.tail41

sub_143:                                          ; preds = %parse_sequence_type.exit
  %63 = getelementptr inbounds nuw i8, ptr %61, i64 1
  %64 = load i8, ptr %63, align 1
  %65 = icmp eq i8 %64, 0
  %66 = zext i1 %65 to i8
  br label %parse_sequence_type.exit.tail41

parse_sequence_type.exit.tail41:                  ; preds = %parse_sequence_type.exit, %sub_143
  %67 = phi i8 [ 0, %parse_sequence_type.exit ], [ %66, %sub_143 ]
  %68 = load ptr, ptr @sequences, align 8
  %69 = getelementptr inbounds nuw %struct.SequenceItem, ptr %68, i64 %indvars.iv, i32 2
  store i8 %67, ptr %69, align 8
  %70 = tail call ptr @PQgetvalue(ptr noundef %17, i32 noundef %24, i32 noundef 8) #14
  %71 = tail call i64 @strtol(ptr noundef captures(none) %70, ptr noundef null, i32 noundef 10) #14
  %72 = load ptr, ptr @sequences, align 8
  %73 = getelementptr inbounds nuw %struct.SequenceItem, ptr %72, i64 %indvars.iv, i32 8
  store i64 %71, ptr %73, align 8
  %74 = tail call ptr @PQgetvalue(ptr noundef %17, i32 noundef %24, i32 noundef 9) #14
  %75 = load i8, ptr %74, align 1
  %.not48 = icmp eq i8 %75, 116
  br i1 %.not48, label %sub_1, label %parse_sequence_type.exit.tail

sub_1:                                            ; preds = %parse_sequence_type.exit.tail41
  %76 = getelementptr inbounds nuw i8, ptr %74, i64 1
  %77 = load i8, ptr %76, align 1
  %78 = icmp eq i8 %77, 0
  %79 = zext i1 %78 to i8
  br label %parse_sequence_type.exit.tail

parse_sequence_type.exit.tail:                    ; preds = %parse_sequence_type.exit.tail41, %sub_1
  %80 = phi i8 [ 0, %parse_sequence_type.exit.tail41 ], [ %79, %sub_1 ]
  %81 = load ptr, ptr @sequences, align 8
  %82 = getelementptr inbounds nuw %struct.SequenceItem, ptr %81, i64 %indvars.iv, i32 9
  store i8 %80, ptr %82, align 8
  %indvars.iv.next = add nuw nsw i64 %indvars.iv, 1
  %83 = load i32, ptr @nsequences, align 4
  %84 = sext i32 %83 to i64
  %85 = icmp slt i64 %indvars.iv.next, %84
  br i1 %85, label %.lr.ph, label %._crit_edge, !llvm.loop !52

86:                                               ; preds = %1, %._crit_edge
  ret void
}